	.arch armv7-a
	.eabi_attribute 27, 3
	.fpu neon
	.eabi_attribute 20, 1
	.eabi_attribute 21, 1
	.eabi_attribute 23, 3
	.eabi_attribute 24, 1
	.eabi_attribute 25, 1
	.eabi_attribute 26, 2
	.eabi_attribute 30, 2
	.eabi_attribute 18, 4
	.file	"plugin.c"
	.text
.Ltext0:
	.cfi_sections	.debug_frame
	.section	.text.registerNativeMethods,"ax",%progbits
	.align	2
	.global	registerNativeMethods
	.type	registerNativeMethods, %function
registerNativeMethods:
	.fnstart
.LFB1884:
	.file 1 "/Andro/Andro509/public_api/poweramp_dsp_plugin_example/jni/plugin.c"
	.loc 1 14 0
	.cfi_startproc
	@ args = 0, pretend = 0, frame = 0
	@ frame_needed = 0, uses_anonymous_args = 0
.LVL0:
	stmfd	sp!, {r4, r5, r6, lr}
	.save {r4, r5, r6, lr}
.LCFI0:
	.cfi_def_cfa_offset 16
	.cfi_offset 14, -4
	.cfi_offset 6, -8
	.cfi_offset 5, -12
	.cfi_offset 4, -16
	.loc 1 14 0
	mov	r6, r2
	.loc 1 15 0
	ldr	r2, [r0, #0]
.LVL1:
	.loc 1 14 0
	mov	r5, r3
	mov	r4, r0
	.loc 1 15 0
	ldr	r3, [r2, #24]
.LVL2:
	blx	r3
.LVL3:
	.loc 1 16 0
	subs	r1, r0, #0
	beq	.L3
	.loc 1 17 0
	ldr	ip, [r4, #0]
	mov	r0, r4
.LVL4:
	mov	r2, r6
	mov	r3, r5
	ldr	ip, [ip, #860]
	blx	ip
.LVL5:
	.loc 1 16 0 discriminator 1
	mvn	r0, r0
	mov	r0, r0, lsr #31
	ldmfd	sp!, {r4, r5, r6, pc}
.LVL6:
.L3:
	mov	r0, r1
.LVL7:
	.loc 1 19 0
	ldmfd	sp!, {r4, r5, r6, pc}
	.cfi_endproc
.LFE1884:
	.fnend
	.size	registerNativeMethods, .-registerNativeMethods
	.section	.text.JNI_OnLoad,"ax",%progbits
	.align	2
	.global	JNI_OnLoad
	.type	JNI_OnLoad, %function
JNI_OnLoad:
	.fnstart
.LFB1885:
	.loc 1 26 0
	.cfi_startproc
	@ args = 0, pretend = 0, frame = 8
	@ frame_needed = 0, uses_anonymous_args = 0
.LVL8:
	str	lr, [sp, #-4]!
	.save {lr}
.LCFI1:
	.cfi_def_cfa_offset 4
	.cfi_offset 14, -4
	.pad #12
	sub	sp, sp, #12
.LCFI2:
	.cfi_def_cfa_offset 16
	.loc 1 30 0
	ldr	r3, [r0, #0]
	.loc 1 27 0
	add	r1, sp, #8
.LVL9:
	mov	ip, #0
	.loc 1 30 0
	mov	r2, #4
	.loc 1 27 0
	str	ip, [r1, #-4]!
.LVL10:
	.loc 1 30 0
	movt	r2, 1
	ldr	r3, [r3, #24]
	blx	r3
.LVL11:
	cmp	r0, #0
	.loc 1 31 0
	mov	r0, #6
	.loc 1 30 0
	bne	.L8
	.loc 1 40 0
	ldr	r1, .L9
	ldr	r2, .L9+4
.LPIC2:
	add	r1, pc, r1
.LPIC3:
	add	r2, pc, r2
	bl	__android_log_print(PLT)
.LVL12:
	.loc 1 42 0
	mov	r0, #6
	movt	r0, 1
.LVL13:
.L7:
	.loc 1 45 0
	add	sp, sp, #12
	ldmfd	sp!, {pc}
.LVL14:
.L8:
	.loc 1 31 0
	ldr	r1, .L9+8
	ldr	r2, .L9+12
.LPIC0:
	add	r1, pc, r1
.LPIC1:
	add	r2, pc, r2
	bl	__android_log_print(PLT)
	.loc 1 28 0
	mvn	r0, #0
	.loc 1 32 0
	b	.L7
.L10:
	.align	2
.L9:
	.word	.LC0-(.LPIC2+8)
	.word	.LC2-(.LPIC3+8)
	.word	.LC0-(.LPIC0+8)
	.word	.LC1-(.LPIC1+8)
	.cfi_endproc
.LFE1885:
	.fnend
	.size	JNI_OnLoad, .-JNI_OnLoad
	.section	.text.JNI_OnUnload,"ax",%progbits
	.align	2
	.global	JNI_OnUnload
	.type	JNI_OnUnload, %function
JNI_OnUnload:
	.fnstart
.LFB1886:
	.loc 1 47 0
	.cfi_startproc
	@ args = 0, pretend = 0, frame = 0
	@ frame_needed = 0, uses_anonymous_args = 0
	@ link register save eliminated.
.LVL15:
	.loc 1 48 0
	bx	lr
	.cfi_endproc
.LFE1886:
	.fnend
	.size	JNI_OnUnload, .-JNI_OnUnload
	.section	.rodata.str1.4,"aMS",%progbits,1
	.align	2
.LC0:
	.ascii	"plugin.c\000"
	.space	3
.LC1:
	.ascii	"GetEnv failed!\000"
	.space	1
.LC2:
	.ascii	"LOADED!\000"
	.text
.Letext0:
	.file 2 "/opt/android-ndk/toolchains/arm-linux-androideabi-4.6/prebuilt/darwin-x86_64/bin/../lib/gcc/arm-linux-androideabi/4.6/include/stdarg.h"
	.file 3 "/opt/android-ndk/platforms/android-18/arch-arm/usr/include/jni.h"
	.file 4 "<built-in>"
	.file 5 "/opt/android-ndk/platforms/android-18/arch-arm/usr/include/android/log.h"
	.section	.note.GNU-stack,"",%progbits
